; Function Attrs: nounwind uwtable
define noalias nonnull ptr @l_Lean_Elab_Term_clearInMatch(ptr noundef %0, ptr noundef %1, ptr noundef readonly captures(none) %2, ptr noundef %3) local_unnamed_addr #0 {
  %5 = tail call zeroext i8 @l_Array_isEmpty___rarg(ptr noundef %1) #5
  %6 = icmp eq i8 %5, 0
  br i1 %6, label %7, label %9

7:                                                ; preds = %4
  %8 = tail call ptr @l_Lean_Elab_Term_clearInMatch___lambda__3(ptr noundef %0, ptr noundef %1, ptr nonnull poison, ptr noundef %2, ptr noundef %3)
  br label %16

9:                                                ; preds = %4
  tail call void @lean_inc_heartbeat() #5
  %10 = tail call noalias ptr @mi_malloc_small(i64 noundef 24) #5
  %11 = icmp eq ptr %10, null
  br i1 %11, label %12, label %lean_alloc_ctor.exit

12:                                               ; preds = %9
  tail call void @lean_internal_panic_out_of_memory() #6
  unreachable

lean_alloc_ctor.exit:                             ; preds = %9
  %13 = getelementptr inbounds nuw i8, ptr %10, i64 4
  store i32 1, ptr %10, align 4, !tbaa !4
  store i32 131096, ptr %13, align 4
  %14 = getelementptr inbounds nuw i8, ptr %10, i64 8
  store ptr %0, ptr %14, align 8, !tbaa !12
  %15 = getelementptr inbounds nuw i8, ptr %10, i64 16
  store ptr %3, ptr %15, align 8, !tbaa !12
  br label %16

16:                                               ; preds = %lean_alloc_ctor.exit, %7
  %.0 = phi ptr [ %8, %7 ], [ %10, %lean_alloc_ctor.exit ]
  ret ptr %.0
}